target datalayout = "e-m:e-p270:32:32-p271:32:32-p272:64:64-i64:64-i128:128-f80:128-n8:16:32:64-S128"
target triple = "x86_64-pc-linux-gnu"

@.str.421 = private unnamed_addr constant [9 x i8] c"asam-cmp\00", align 1
@proto_asam_cmp = internal global i32 0, align 4
@.str.438 = private unnamed_addr constant [13 x i8] c"eth_maybefcs\00", align 1
@eth_handle = internal global ptr null, align 8
@.str.439 = private unnamed_addr constant [10 x i8] c"ethertype\00", align 1
@.str.440 = private unnamed_addr constant [9 x i8] c"udp.port\00", align 1
@.str.441 = private unnamed_addr constant [13 x i8] c"lin.frame_id\00", align 1
@lin_subdissector_table = internal global ptr null, align 8

; Function Attrs: null_pointer_is_valid sspstrong uwtable
define hidden void @proto_reg_handoff_asam_cmp() #0 {
  %1 = alloca ptr, align 8
  call void @llvm.lifetime.start.p0(i64 8, ptr %1) #8
  %2 = load i32, ptr @proto_asam_cmp, align 4
  %3 = call ptr @register_dissector(ptr noundef @.str.421, ptr noundef @dissect_asam_cmp, i32 noundef %2)
  store ptr %3, ptr %1, align 8
  %4 = call ptr @find_dissector(ptr noundef @.str.438)
  store ptr %4, ptr @eth_handle, align 8
  %5 = load ptr, ptr %1, align 8
  call void @dissector_add_for_decode_as(ptr noundef @.str.439, ptr noundef %5)
  %6 = load ptr, ptr %1, align 8
  call void @dissector_add_for_decode_as_with_preference(ptr noundef @.str.440, ptr noundef %6)
  %7 = call ptr @find_dissector_table(ptr noundef @.str.441)
  store ptr %7, ptr @lin_subdissector_table, align 8
  call void @llvm.lifetime.end.p0(i64 8, ptr %1) #8
  ret void
}