; Function Attrs: null_pointer_is_valid sspstrong uwtable
define hidden void @proto_reg_handoff_asam_cmp() local_unnamed_addr #0 {
  %1 = load i32, ptr @proto_asam_cmp, align 4
  %2 = tail call ptr @register_dissector(ptr noundef nonnull @.str.421, ptr noundef nonnull @dissect_asam_cmp, i32 noundef %1)
  %3 = tail call ptr @find_dissector(ptr noundef nonnull @.str.438)
  store ptr %3, ptr @eth_handle, align 8
  tail call void @dissector_add_for_decode_as(ptr noundef nonnull @.str.439, ptr noundef %2)
  tail call void @dissector_add_for_decode_as_with_preference(ptr noundef nonnull @.str.440, ptr noundef %2)
  %4 = tail call ptr @find_dissector_table(ptr noundef nonnull @.str.441)
  store ptr %4, ptr @lin_subdissector_table, align 8
  ret void
}